; Function Attrs: null_pointer_is_valid sspstrong uwtable
define internal noundef zeroext i1 @dissect_rpc_tls_heur(ptr noundef %0, ptr noundef %1, ptr noundef %2, ptr noundef captures(address_is_null) %3) #0 {
  %5 = tail call fastcc zeroext i1 @dissect_rpc_tcp_common(ptr noundef %0, ptr noundef %1, ptr noundef %2, i1 noundef zeroext true, ptr noundef null, ptr noundef %3)
  %.not = icmp ne ptr %3, null
  %or.cond.not = and i1 %.not, %5
  br i1 %or.cond.not, label %6, label %10

6:                                                ; preds = %4
  %7 = load ptr, ptr @rpc_tls_handle, align 8
  %8 = getelementptr inbounds nuw i8, ptr %3, i64 8
  %9 = load ptr, ptr %8, align 8
  store ptr %7, ptr %9, align 8
  br label %10

10:                                               ; preds = %4, %6
  ret i1 %5
}